; Function Attrs: null_pointer_is_valid sspstrong uwtable
define noundef ptr @proto_tree_add_guid_format(ptr noundef %0, i32 noundef %1, ptr noundef %2, i32 noundef %3, i32 noundef %4, ptr noundef %5, ptr noundef %6, ...) local_unnamed_addr #0 {
  %8 = alloca [1 x %struct.__va_list_tag], align 16
  call void @llvm.lifetime.start.p0(i64 24, ptr nonnull %8) #39
  %9 = tail call ptr @proto_tree_add_guid(ptr noundef %0, i32 noundef %1, ptr noundef %2, i32 noundef %3, i32 noundef %4, ptr noundef %5)
  %.not = icmp eq ptr %9, %0
  br i1 %.not, label %proto_item_is_hidden.exit.thread, label %10

10:                                               ; preds = %7
  %11 = getelementptr inbounds nuw i8, ptr %9, i64 40
  %12 = load ptr, ptr %11, align 8
  %.not16 = icmp eq ptr %12, null
  br i1 %.not16, label %proto_item_is_hidden.exit.thread, label %13

13:                                               ; preds = %10
  %14 = getelementptr inbounds nuw i8, ptr %9, i64 48
  %15 = load ptr, ptr %14, align 8
  %16 = getelementptr inbounds nuw i8, ptr %15, i64 8
  %17 = load i8, ptr %16, align 8, !range !10, !noundef !11
  %18 = trunc nuw i8 %17 to i1
  br i1 %18, label %23, label %19

19:                                               ; preds = %13
  %.not.i = icmp eq ptr %9, null
  br i1 %.not.i, label %proto_item_is_hidden.exit.thread, label %proto_item_is_hidden.exit

proto_item_is_hidden.exit:                        ; preds = %19
  %20 = getelementptr inbounds nuw i8, ptr %12, i64 28
  %21 = load i32, ptr %20, align 4
  %22 = and i32 %21, 1
  %.not18 = icmp eq i32 %22, 0
  br i1 %.not18, label %23, label %proto_item_is_hidden.exit.thread

23:                                               ; preds = %proto_item_is_hidden.exit, %13
  call void @llvm.va_start.p0(ptr nonnull %8)
  call fastcc void @proto_tree_set_representation(ptr noundef %9, ptr noundef %6, ptr noundef nonnull %8)
  call void @llvm.va_end.p0(ptr nonnull %8)
  br label %proto_item_is_hidden.exit.thread

proto_item_is_hidden.exit.thread:                 ; preds = %19, %7, %23, %proto_item_is_hidden.exit, %10
  call void @llvm.lifetime.end.p0(i64 24, ptr nonnull %8) #39
  ret ptr %9
}